target datalayout = "e-m:e-p270:32:32-p271:32:32-p272:64:64-i64:64-i128:128-f80:128-n8:16:32:64-S128"
target triple = "x86_64-pc-linux-gnu"

%struct._object = type { i64, ptr }
%"class.std::__cxx11::basic_string" = type { %"struct.std::__cxx11::basic_string<char>::_Alloc_hider", i64, %union.anon }
%"struct.std::__cxx11::basic_string<char>::_Alloc_hider" = type { ptr }
%union.anon = type { i64, [8 x i8] }
%"class.cv::Exception" = type <{ %"class.std::exception", %"class.std::__cxx11::basic_string", i32, [4 x i8], %"class.std::__cxx11::basic_string", %"class.std::__cxx11::basic_string", %"class.std::__cxx11::basic_string", i32, [4 x i8] }>
%"class.std::exception" = type { ptr }

@opencv_error = hidden global ptr null, align 8
@.str.4 = private unnamed_addr constant [5 x i8] c"file\00", align 1
@.str.5 = private unnamed_addr constant [5 x i8] c"func\00", align 1
@.str.6 = private unnamed_addr constant [5 x i8] c"line\00", align 1
@.str.7 = private unnamed_addr constant [5 x i8] c"code\00", align 1
@.str.8 = private unnamed_addr constant [4 x i8] c"msg\00", align 1
@.str.9 = private unnamed_addr constant [4 x i8] c"err\00", align 1

; Function Attrs: mustprogress uwtable
define internal void @_ZL10_Py_DECREFP7_object(ptr noundef %0) #4 {
  %2 = alloca ptr, align 8
  store ptr %0, ptr %2, align 8
  %3 = load ptr, ptr %2, align 8
  %4 = getelementptr inbounds %struct._object, ptr %3, i32 0, i32 0
  %5 = load i64, ptr %4, align 8
  %6 = add nsw i64 %5, -1
  store i64 %6, ptr %4, align 8
  %7 = icmp ne i64 %6, 0
  br i1 %7, label %8, label %9

8:                                                ; preds = %1
  br label %11

9:                                                ; preds = %1
  %10 = load ptr, ptr %2, align 8
  call void @_Py_Dealloc(ptr noundef %10)
  br label %11

11:                                               ; preds = %9, %8
  ret void
}

; Function Attrs: mustprogress uwtable
define hidden void @_Z18pyRaiseCVExceptionRKN2cv9ExceptionE(ptr noundef nonnull align 8 dereferenceable(148) %0) #4 {
  %2 = alloca ptr, align 8
  %3 = alloca ptr, align 8
  store ptr %0, ptr %2, align 8
  %4 = load ptr, ptr %2, align 8
  %5 = getelementptr inbounds %"class.cv::Exception", ptr %4, i32 0, i32 6
  %6 = call noundef ptr @_ZNKSt7__cxx1112basic_stringIcSt11char_traitsIcESaIcEE5c_strEv(ptr noundef nonnull align 8 dereferenceable(32) %5) #3
  %7 = call ptr @PyUnicode_FromString(ptr noundef %6)
  store ptr %7, ptr %3, align 8
  %8 = load ptr, ptr @opencv_error, align 8
  %9 = load ptr, ptr %3, align 8
  %10 = call i32 @PyObject_SetAttrString(ptr noundef %8, ptr noundef @.str.4, ptr noundef %9)
  %11 = load ptr, ptr %3, align 8
  call void @_ZL10_Py_DECREFP7_object(ptr noundef %11)
  %12 = load ptr, ptr %2, align 8
  %13 = getelementptr inbounds %"class.cv::Exception", ptr %12, i32 0, i32 5
  %14 = call noundef ptr @_ZNKSt7__cxx1112basic_stringIcSt11char_traitsIcESaIcEE5c_strEv(ptr noundef nonnull align 8 dereferenceable(32) %13) #3
  %15 = call ptr @PyUnicode_FromString(ptr noundef %14)
  store ptr %15, ptr %3, align 8
  %16 = load ptr, ptr @opencv_error, align 8
  %17 = load ptr, ptr %3, align 8
  %18 = call i32 @PyObject_SetAttrString(ptr noundef %16, ptr noundef @.str.5, ptr noundef %17)
  %19 = load ptr, ptr %3, align 8
  call void @_ZL10_Py_DECREFP7_object(ptr noundef %19)
  %20 = load ptr, ptr %2, align 8
  %21 = getelementptr inbounds %"class.cv::Exception", ptr %20, i32 0, i32 7
  %22 = load i32, ptr %21, align 8
  %23 = sext i32 %22 to i64
  %24 = call ptr @PyLong_FromLong(i64 noundef %23)
  store ptr %24, ptr %3, align 8
  %25 = load ptr, ptr @opencv_error, align 8
  %26 = load ptr, ptr %3, align 8
  %27 = call i32 @PyObject_SetAttrString(ptr noundef %25, ptr noundef @.str.6, ptr noundef %26)
  %28 = load ptr, ptr %3, align 8
  call void @_ZL10_Py_DECREFP7_object(ptr noundef %28)
  %29 = load ptr, ptr %2, align 8
  %30 = getelementptr inbounds %"class.cv::Exception", ptr %29, i32 0, i32 2
  %31 = load i32, ptr %30, align 8
  %32 = sext i32 %31 to i64
  %33 = call ptr @PyLong_FromLong(i64 noundef %32)
  store ptr %33, ptr %3, align 8
  %34 = load ptr, ptr @opencv_error, align 8
  %35 = load ptr, ptr %3, align 8
  %36 = call i32 @PyObject_SetAttrString(ptr noundef %34, ptr noundef @.str.7, ptr noundef %35)
  %37 = load ptr, ptr %3, align 8
  call void @_ZL10_Py_DECREFP7_object(ptr noundef %37)
  %38 = load ptr, ptr %2, align 8
  %39 = getelementptr inbounds %"class.cv::Exception", ptr %38, i32 0, i32 1
  %40 = call noundef ptr @_ZNKSt7__cxx1112basic_stringIcSt11char_traitsIcESaIcEE5c_strEv(ptr noundef nonnull align 8 dereferenceable(32) %39) #3
  %41 = call ptr @PyUnicode_FromString(ptr noundef %40)
  store ptr %41, ptr %3, align 8
  %42 = load ptr, ptr @opencv_error, align 8
  %43 = load ptr, ptr %3, align 8
  %44 = call i32 @PyObject_SetAttrString(ptr noundef %42, ptr noundef @.str.8, ptr noundef %43)
  %45 = load ptr, ptr %3, align 8
  call void @_ZL10_Py_DECREFP7_object(ptr noundef %45)
  %46 = load ptr, ptr %2, align 8
  %47 = getelementptr inbounds %"class.cv::Exception", ptr %46, i32 0, i32 4
  %48 = call noundef ptr @_ZNKSt7__cxx1112basic_stringIcSt11char_traitsIcESaIcEE5c_strEv(ptr noundef nonnull align 8 dereferenceable(32) %47) #3
  %49 = call ptr @PyUnicode_FromString(ptr noundef %48)
  store ptr %49, ptr %3, align 8
  %50 = load ptr, ptr @opencv_error, align 8
  %51 = load ptr, ptr %3, align 8
  %52 = call i32 @PyObject_SetAttrString(ptr noundef %50, ptr noundef @.str.9, ptr noundef %51)
  %53 = load ptr, ptr %3, align 8
  call void @_ZL10_Py_DECREFP7_object(ptr noundef %53)
  %54 = load ptr, ptr @opencv_error, align 8
  %55 = load ptr, ptr %2, align 8
  %56 = load ptr, ptr %55, align 8
  %57 = getelementptr inbounds ptr, ptr %56, i64 2
  %58 = load ptr, ptr %57, align 8
  %59 = call noundef ptr %58(ptr noundef nonnull align 8 dereferenceable(148) %55) #3
  call void @PyErr_SetString(ptr noundef %54, ptr noundef %59)
  ret void
}