; Function Attrs: mustprogress uwtable
define hidden void @_Z18pyRaiseCVExceptionRKN2cv9ExceptionE(ptr noundef nonnull align 8 dereferenceable(148) %0) local_unnamed_addr #4 {
  %2 = getelementptr inbounds i8, ptr %0, i64 112
  %3 = tail call noundef ptr @_ZNKSt7__cxx1112basic_stringIcSt11char_traitsIcESaIcEE5c_strEv(ptr noundef nonnull align 8 dereferenceable(32) %2) #17
  %4 = tail call ptr @PyUnicode_FromString(ptr noundef %3)
  %5 = load ptr, ptr @opencv_error, align 8
  %6 = tail call i32 @PyObject_SetAttrString(ptr noundef %5, ptr noundef nonnull @.str.4, ptr noundef %4)
  %7 = load i64, ptr %4, align 8
  %8 = add nsw i64 %7, -1
  store i64 %8, ptr %4, align 8
  %.not.i = icmp eq i64 %8, 0
  br i1 %.not.i, label %9, label %_ZL10_Py_DECREFP7_object.exit

9:                                                ; preds = %1
  tail call void @_Py_Dealloc(ptr noundef nonnull %4)
  br label %_ZL10_Py_DECREFP7_object.exit

_ZL10_Py_DECREFP7_object.exit:                    ; preds = %1, %9
  %10 = getelementptr inbounds i8, ptr %0, i64 80
  %11 = tail call noundef ptr @_ZNKSt7__cxx1112basic_stringIcSt11char_traitsIcESaIcEE5c_strEv(ptr noundef nonnull align 8 dereferenceable(32) %10) #17
  %12 = tail call ptr @PyUnicode_FromString(ptr noundef %11)
  %13 = load ptr, ptr @opencv_error, align 8
  %14 = tail call i32 @PyObject_SetAttrString(ptr noundef %13, ptr noundef nonnull @.str.5, ptr noundef %12)
  %15 = load i64, ptr %12, align 8
  %16 = add nsw i64 %15, -1
  store i64 %16, ptr %12, align 8
  %.not.i19 = icmp eq i64 %16, 0
  br i1 %.not.i19, label %17, label %_ZL10_Py_DECREFP7_object.exit20

17:                                               ; preds = %_ZL10_Py_DECREFP7_object.exit
  tail call void @_Py_Dealloc(ptr noundef nonnull %12)
  br label %_ZL10_Py_DECREFP7_object.exit20

_ZL10_Py_DECREFP7_object.exit20:                  ; preds = %_ZL10_Py_DECREFP7_object.exit, %17
  %18 = getelementptr inbounds i8, ptr %0, i64 144
  %19 = load i32, ptr %18, align 8
  %20 = sext i32 %19 to i64
  %21 = tail call ptr @PyLong_FromLong(i64 noundef %20)
  %22 = load ptr, ptr @opencv_error, align 8
  %23 = tail call i32 @PyObject_SetAttrString(ptr noundef %22, ptr noundef nonnull @.str.6, ptr noundef %21)
  %24 = load i64, ptr %21, align 8
  %25 = add nsw i64 %24, -1
  store i64 %25, ptr %21, align 8
  %.not.i21 = icmp eq i64 %25, 0
  br i1 %.not.i21, label %26, label %_ZL10_Py_DECREFP7_object.exit22

26:                                               ; preds = %_ZL10_Py_DECREFP7_object.exit20
  tail call void @_Py_Dealloc(ptr noundef nonnull %21)
  br label %_ZL10_Py_DECREFP7_object.exit22

_ZL10_Py_DECREFP7_object.exit22:                  ; preds = %_ZL10_Py_DECREFP7_object.exit20, %26
  %27 = getelementptr inbounds i8, ptr %0, i64 40
  %28 = load i32, ptr %27, align 8
  %29 = sext i32 %28 to i64
  %30 = tail call ptr @PyLong_FromLong(i64 noundef %29)
  %31 = load ptr, ptr @opencv_error, align 8
  %32 = tail call i32 @PyObject_SetAttrString(ptr noundef %31, ptr noundef nonnull @.str.7, ptr noundef %30)
  %33 = load i64, ptr %30, align 8
  %34 = add nsw i64 %33, -1
  store i64 %34, ptr %30, align 8
  %.not.i23 = icmp eq i64 %34, 0
  br i1 %.not.i23, label %35, label %_ZL10_Py_DECREFP7_object.exit24

35:                                               ; preds = %_ZL10_Py_DECREFP7_object.exit22
  tail call void @_Py_Dealloc(ptr noundef nonnull %30)
  br label %_ZL10_Py_DECREFP7_object.exit24

_ZL10_Py_DECREFP7_object.exit24:                  ; preds = %_ZL10_Py_DECREFP7_object.exit22, %35
  %36 = getelementptr inbounds i8, ptr %0, i64 8
  %37 = tail call noundef ptr @_ZNKSt7__cxx1112basic_stringIcSt11char_traitsIcESaIcEE5c_strEv(ptr noundef nonnull align 8 dereferenceable(32) %36) #17
  %38 = tail call ptr @PyUnicode_FromString(ptr noundef %37)
  %39 = load ptr, ptr @opencv_error, align 8
  %40 = tail call i32 @PyObject_SetAttrString(ptr noundef %39, ptr noundef nonnull @.str.8, ptr noundef %38)
  %41 = load i64, ptr %38, align 8
  %42 = add nsw i64 %41, -1
  store i64 %42, ptr %38, align 8
  %.not.i25 = icmp eq i64 %42, 0
  br i1 %.not.i25, label %43, label %_ZL10_Py_DECREFP7_object.exit26

43:                                               ; preds = %_ZL10_Py_DECREFP7_object.exit24
  tail call void @_Py_Dealloc(ptr noundef nonnull %38)
  br label %_ZL10_Py_DECREFP7_object.exit26

_ZL10_Py_DECREFP7_object.exit26:                  ; preds = %_ZL10_Py_DECREFP7_object.exit24, %43
  %44 = getelementptr inbounds i8, ptr %0, i64 48
  %45 = tail call noundef ptr @_ZNKSt7__cxx1112basic_stringIcSt11char_traitsIcESaIcEE5c_strEv(ptr noundef nonnull align 8 dereferenceable(32) %44) #17
  %46 = tail call ptr @PyUnicode_FromString(ptr noundef %45)
  %47 = load ptr, ptr @opencv_error, align 8
  %48 = tail call i32 @PyObject_SetAttrString(ptr noundef %47, ptr noundef nonnull @.str.9, ptr noundef %46)
  %49 = load i64, ptr %46, align 8
  %50 = add nsw i64 %49, -1
  store i64 %50, ptr %46, align 8
  %.not.i27 = icmp eq i64 %50, 0
  br i1 %.not.i27, label %51, label %_ZL10_Py_DECREFP7_object.exit28

51:                                               ; preds = %_ZL10_Py_DECREFP7_object.exit26
  tail call void @_Py_Dealloc(ptr noundef nonnull %46)
  br label %_ZL10_Py_DECREFP7_object.exit28

_ZL10_Py_DECREFP7_object.exit28:                  ; preds = %_ZL10_Py_DECREFP7_object.exit26, %51
  %52 = load ptr, ptr @opencv_error, align 8
  %53 = load ptr, ptr %0, align 8
  %54 = getelementptr inbounds i8, ptr %53, i64 16
  %55 = load ptr, ptr %54, align 8
  %56 = tail call noundef ptr %55(ptr noundef nonnull align 8 dereferenceable(148) %0) #17
  tail call void @PyErr_SetString(ptr noundef %52, ptr noundef %56)
  ret void
}